target datalayout = "e-m:e-p270:32:32-p271:32:32-p272:64:64-i64:64-i128:128-f80:128-n8:16:32:64-S128"
target triple = "x86_64-pc-linux-gnu"

%struct.kmac_data_st = type { ptr, ptr, %struct.PROV_DIGEST, i64, i64, i64, i32, [672 x i8], [516 x i8] }
%struct.PROV_DIGEST = type { ptr, ptr, ptr }

@.str.2 = private unnamed_addr constant [54 x i8] c"../openssl/providers/implementations/macs/kmac_prov.c\00", align 1

; Function Attrs: nounwind uwtable
define internal void @kmac_free(ptr noundef %0) #0 {
  %2 = alloca ptr, align 8
  %3 = alloca ptr, align 8
  store ptr %0, ptr %2, align 8, !tbaa !3
  call void @llvm.lifetime.start.p0(i64 8, ptr %3) #7
  %4 = load ptr, ptr %2, align 8, !tbaa !3
  store ptr %4, ptr %3, align 8, !tbaa !7
  %5 = load ptr, ptr %3, align 8, !tbaa !7
  %6 = icmp ne ptr %5, null
  br i1 %6, label %7, label %26

7:                                                ; preds = %1
  %8 = load ptr, ptr %3, align 8, !tbaa !7
  %9 = getelementptr inbounds nuw %struct.kmac_data_st, ptr %8, i32 0, i32 1
  %10 = load ptr, ptr %9, align 8, !tbaa !17
  call void @EVP_MD_CTX_free(ptr noundef %10)
  %11 = load ptr, ptr %3, align 8, !tbaa !7
  %12 = getelementptr inbounds nuw %struct.kmac_data_st, ptr %11, i32 0, i32 2
  call void @ossl_prov_digest_reset(ptr noundef %12)
  %13 = load ptr, ptr %3, align 8, !tbaa !7
  %14 = getelementptr inbounds nuw %struct.kmac_data_st, ptr %13, i32 0, i32 7
  %15 = getelementptr inbounds [672 x i8], ptr %14, i64 0, i64 0
  %16 = load ptr, ptr %3, align 8, !tbaa !7
  %17 = getelementptr inbounds nuw %struct.kmac_data_st, ptr %16, i32 0, i32 4
  %18 = load i64, ptr %17, align 8, !tbaa !19
  call void @OPENSSL_cleanse(ptr noundef %15, i64 noundef %18)
  %19 = load ptr, ptr %3, align 8, !tbaa !7
  %20 = getelementptr inbounds nuw %struct.kmac_data_st, ptr %19, i32 0, i32 8
  %21 = getelementptr inbounds [516 x i8], ptr %20, i64 0, i64 0
  %22 = load ptr, ptr %3, align 8, !tbaa !7
  %23 = getelementptr inbounds nuw %struct.kmac_data_st, ptr %22, i32 0, i32 5
  %24 = load i64, ptr %23, align 8, !tbaa !20
  call void @OPENSSL_cleanse(ptr noundef %21, i64 noundef %24)
  %25 = load ptr, ptr %3, align 8, !tbaa !7
  call void @CRYPTO_free(ptr noundef %25, ptr noundef @.str.2, i32 noundef 163)
  br label %26

26:                                               ; preds = %7, %1
  call void @llvm.lifetime.end.p0(i64 8, ptr %3) #7
  ret void
}

; Function Attrs: nounwind uwtable
define internal ptr @kmac_fetch_new(ptr noundef %0, ptr noundef %1) #0 {
  %3 = alloca ptr, align 8
  %4 = alloca ptr, align 8
  %5 = alloca ptr, align 8
  %6 = alloca ptr, align 8
  %7 = alloca i32, align 4
  %8 = alloca i32, align 4
  store ptr %0, ptr %4, align 8, !tbaa !3
  store ptr %1, ptr %5, align 8, !tbaa !25
  call void @llvm.lifetime.start.p0(i64 8, ptr %6) #7
  %9 = load ptr, ptr %4, align 8, !tbaa !3
  %10 = call ptr @kmac_new(ptr noundef %9)
  store ptr %10, ptr %6, align 8, !tbaa !7
  call void @llvm.lifetime.start.p0(i64 4, ptr %7) #7
  %11 = load ptr, ptr %6, align 8, !tbaa !7
  %12 = icmp eq ptr %11, null
  br i1 %12, label %13, label %14

13:                                               ; preds = %2
  store ptr null, ptr %3, align 8
  store i32 1, ptr %8, align 4
  br label %39

14:                                               ; preds = %2
  %15 = load ptr, ptr %6, align 8, !tbaa !7
  %16 = getelementptr inbounds nuw %struct.kmac_data_st, ptr %15, i32 0, i32 2
  %17 = load ptr, ptr %5, align 8, !tbaa !25
  %18 = load ptr, ptr %4, align 8, !tbaa !3
  %19 = call ptr @ossl_prov_ctx_get0_libctx(ptr noundef %18)
  %20 = call i32 @ossl_prov_digest_load_from_params(ptr noundef %16, ptr noundef %17, ptr noundef %19)
  %21 = icmp ne i32 %20, 0
  br i1 %21, label %24, label %22

22:                                               ; preds = %14
  %23 = load ptr, ptr %6, align 8, !tbaa !7
  call void @kmac_free(ptr noundef %23)
  store ptr null, ptr %3, align 8
  store i32 1, ptr %8, align 4
  br label %39

24:                                               ; preds = %14
  %25 = load ptr, ptr %6, align 8, !tbaa !7
  %26 = getelementptr inbounds nuw %struct.kmac_data_st, ptr %25, i32 0, i32 2
  %27 = call ptr @ossl_prov_digest_md(ptr noundef %26)
  %28 = call i32 @EVP_MD_get_size(ptr noundef %27)
  store i32 %28, ptr %7, align 4, !tbaa !28
  %29 = load i32, ptr %7, align 4, !tbaa !28
  %30 = icmp sle i32 %29, 0
  br i1 %30, label %31, label %33

31:                                               ; preds = %24
  %32 = load ptr, ptr %6, align 8, !tbaa !7
  call void @kmac_free(ptr noundef %32)
  store ptr null, ptr %3, align 8
  store i32 1, ptr %8, align 4
  br label %39

33:                                               ; preds = %24
  %34 = load i32, ptr %7, align 4, !tbaa !28
  %35 = sext i32 %34 to i64
  %36 = load ptr, ptr %6, align 8, !tbaa !7
  %37 = getelementptr inbounds nuw %struct.kmac_data_st, ptr %36, i32 0, i32 3
  store i64 %35, ptr %37, align 8, !tbaa !18
  %38 = load ptr, ptr %6, align 8, !tbaa !7
  store ptr %38, ptr %3, align 8
  store i32 1, ptr %8, align 4
  br label %39

39:                                               ; preds = %33, %31, %22, %13
  call void @llvm.lifetime.end.p0(i64 4, ptr %7) #7
  call void @llvm.lifetime.end.p0(i64 8, ptr %6) #7
  %40 = load ptr, ptr %3, align 8
  ret ptr %40
}