; Function Attrs: nounwind uwtable
define internal fastcc ptr @kmac_fetch_new(ptr noundef %0, ptr noundef %1) unnamed_addr #0 {
  %3 = tail call fastcc ptr @kmac_new(ptr noundef %0)
  %4 = icmp eq ptr %3, null
  br i1 %4, label %32, label %5

5:                                                ; preds = %2
  %6 = getelementptr inbounds nuw i8, ptr %3, i64 16
  %7 = tail call ptr @ossl_prov_ctx_get0_libctx(ptr noundef %0) #7
  %8 = tail call i32 @ossl_prov_digest_load_from_params(ptr noundef nonnull %6, ptr noundef %1, ptr noundef %7) #7
  %.not = icmp eq i32 %8, 0
  br i1 %.not, label %kmac_free.exit, label %17

kmac_free.exit:                                   ; preds = %5
  %9 = getelementptr inbounds nuw i8, ptr %3, i64 8
  %10 = load ptr, ptr %9, align 8, !tbaa !14
  tail call void @EVP_MD_CTX_free(ptr noundef %10) #7
  tail call void @ossl_prov_digest_reset(ptr noundef nonnull %6) #7
  %11 = getelementptr inbounds nuw i8, ptr %3, i64 68
  %12 = getelementptr inbounds nuw i8, ptr %3, i64 48
  %13 = load i64, ptr %12, align 8, !tbaa !15
  tail call void @OPENSSL_cleanse(ptr noundef nonnull %11, i64 noundef %13) #7
  %14 = getelementptr inbounds nuw i8, ptr %3, i64 740
  %15 = getelementptr inbounds nuw i8, ptr %3, i64 56
  %16 = load i64, ptr %15, align 8, !tbaa !16
  tail call void @OPENSSL_cleanse(ptr noundef nonnull %14, i64 noundef %16) #7
  tail call void @CRYPTO_free(ptr noundef nonnull %3, ptr noundef nonnull @.str.2, i32 noundef 163) #7
  br label %32

17:                                               ; preds = %5
  %18 = tail call ptr @ossl_prov_digest_md(ptr noundef nonnull %6) #7
  %19 = tail call i32 @EVP_MD_get_size(ptr noundef %18) #7
  %20 = icmp slt i32 %19, 1
  br i1 %20, label %kmac_free.exit15, label %29

kmac_free.exit15:                                 ; preds = %17
  %21 = getelementptr inbounds nuw i8, ptr %3, i64 8
  %22 = load ptr, ptr %21, align 8, !tbaa !14
  tail call void @EVP_MD_CTX_free(ptr noundef %22) #7
  tail call void @ossl_prov_digest_reset(ptr noundef nonnull %6) #7
  %23 = getelementptr inbounds nuw i8, ptr %3, i64 68
  %24 = getelementptr inbounds nuw i8, ptr %3, i64 48
  %25 = load i64, ptr %24, align 8, !tbaa !15
  tail call void @OPENSSL_cleanse(ptr noundef nonnull %23, i64 noundef %25) #7
  %26 = getelementptr inbounds nuw i8, ptr %3, i64 740
  %27 = getelementptr inbounds nuw i8, ptr %3, i64 56
  %28 = load i64, ptr %27, align 8, !tbaa !16
  tail call void @OPENSSL_cleanse(ptr noundef nonnull %26, i64 noundef %28) #7
  tail call void @CRYPTO_free(ptr noundef nonnull %3, ptr noundef nonnull @.str.2, i32 noundef 163) #7
  br label %32

29:                                               ; preds = %17
  %30 = zext nneg i32 %19 to i64
  %31 = getelementptr inbounds nuw i8, ptr %3, i64 40
  store i64 %30, ptr %31, align 8, !tbaa !17
  br label %32

32:                                               ; preds = %2, %29, %kmac_free.exit15, %kmac_free.exit
  %.0 = phi ptr [ null, %kmac_free.exit15 ], [ %3, %29 ], [ null, %kmac_free.exit ], [ null, %2 ]
  ret ptr %.0
}